Certificate:
    Data:
        Version: 3 (0x2)
        Serial Number: 1 (0x1)
    Signature Algorithm: sha1WithRSAEncryption
        Issuer: CN=pft, C=FR, ST=PACA, L=Aix, O=Eurecom, OU=CM
        Validity
            Not Before: Jan  7 20:13:34 2015 GMT
            Not After : Jan  7 20:13:34 2016 GMT
        Subject: C=FR, ST=PACA, O=Eurecom, OU=CM, CN=hss.pft
        Subject Public Key Info:
            Public Key Algorithm: rsaEncryption
                Public-Key: (1024 bit)
                Modulus:
                    00:d1:b4:91:39:0b:39:3b:2c:89:67:66:04:58:dd:
                    6d:05:04:06:0a:bc:7d:1c:74:37:90:69:a4:0d:90:
                    ed:90:70:40:7e:b5:4b:09:6e:67:36:91:fc:0e:3f:
                    72:b0:3d:d8:1c:35:26:b6:1a:b1:b2:dd:ab:2e:cd:
                    3e:76:8e:16:8f:8a:6d:43:bd:0e:ad:29:bc:8c:c5:
                    93:8d:39:0a:ab:40:47:a5:3e:5a:63:50:38:c9:46:
                    db:e9:51:9c:f5:45:2e:cf:07:da:79:4b:0d:68:1a:
                    96:76:c3:e7:69:05:22:b4:67:5a:f5:b4:29:86:25:
                    ae:94:86:ca:8a:e4:f8:2e:d3
                Exponent: 65537 (0x10001)
        X509v3 extensions:
            X509v3 Basic Constraints: 
                CA:FALSE
            Netscape Comment: 
                OpenSSL Generated Certificate
            X509v3 Subject Key Identifier: 
                08:99:49:4E:E7:7D:54:B4:FB:96:90:B3:CA:10:41:EA:94:90:FC:40
            X509v3 Authority Key Identifier: 
                keyid:25:84:C4:26:24:9E:87:40:48:9E:58:98:68:C7:4E:A2:E7:3C:71:AB

    Signature Algorithm: sha1WithRSAEncryption
         77:fd:c2:9c:95:26:74:a0:81:51:1f:51:48:38:b2:9b:5c:7d:
         0c:d1:39:40:95:c5:43:f0:19:b7:21:5a:eb:17:ee:ad:03:80:
         84:cb:14:72:f7:8b:25:6f:4a:83:17:a3:de:17:95:fb:bd:2b:
         54:0c:fa:b1:12:92:6b:be:b7:cd:3e:da:d3:01:44:f6:a9:43:
         50:b2:cb:3a:5d:ab:48:c6:d2:88:c3:c3:d3:ce:e1:72:27:93:
         97:1c:d2:44:68:9c:31:cb:10:f5:af:50:83:14:0b:81:72:19:
         ef:cf:fa:a9:39:8c:99:a6:95:fc:3b:66:89:79:96:51:a8:29:
         d4:3c
-----BEGIN CERTIFICATE-----
MIIClTCCAf6gAwIBAgIBATANBgkqhkiG9w0BAQUFADBXMQwwCgYDVQQDDANwZnQx
CzAJBgNVBAYTAkZSMQ0wCwYDVQQIDARQQUNBMQwwCgYDVQQHDANBaXgxEDAOBgNV
BAoMB0V1cmVjb20xCzAJBgNVBAsMAkNNMB4XDTE1MDEwNzIwMTMzNFoXDTE2MDEw
NzIwMTMzNFowTTELMAkGA1UEBhMCRlIxDTALBgNVBAgMBFBBQ0ExEDAOBgNVBAoM
B0V1cmVjb20xCzAJBgNVBAsMAkNNMRAwDgYDVQQDDAdoc3MucGZ0MIGfMA0GCSqG
SIb3DQEBAQUAA4GNADCBiQKBgQDRtJE5Czk7LIlnZgRY3W0FBAYKvH0cdDeQaaQN
kO2QcEB+tUsJbmc2kfwOP3KwPdgcNSa2GrGy3asuzT52jhaPim1DvQ6tKbyMxZON
OQqrQEelPlpjUDjJRtvpUZz1RS7PB9p5Sw1oGpZ2w+dpBSK0Z1r1tCmGJa6UhsqK
5Pgu0wIDAQABo3sweTAJBgNVHRMEAjAAMCwGCWCGSAGG+EIBDQQfFh1PcGVuU1NM
IEdlbmVyYXRlZCBDZXJ0aWZpY2F0ZTAdBgNVHQ4EFgQUCJlJTud9VLT7lpCzyhBB
6pSQ/EAwHwYDVR0jBBgwFoAUJYTEJiSeh0BInliYaMdOouc8caswDQYJKoZIhvcN
AQEFBQADgYEAd/3CnJUmdKCBUR9RSDiym1x9DNE5QJXFQ/AZtyFa6xfurQOAhMsU
cveLJW9Kgxej3heV+70rVAz6sRKSa763zT7a0wFE9qlDULLLOl2rSMbSiMPD087h
cieTlxzSRGicMcsQ9a9QgxQLgXIZ78/6qTmMmaaV/DtmiXmWUagp1Dw=
-----END CERTIFICATE-----
